; Function Attrs: mustprogress nounwind willreturn uwtable
define ptr @stbds_arrgrowf(ptr noundef captures(address_is_null, ret: address, provenance) %0, i64 noundef %1, i64 noundef %2, i64 noundef %3) local_unnamed_addr #0 {
  %.not = icmp eq ptr %0, null
  br i1 %.not, label %5, label %.thread36

5:                                                ; preds = %4
  %spec.select34 = tail call i64 @llvm.umax.i64(i64 %2, i64 %3)
  %.not33.not = icmp eq i64 %spec.select34, 0
  br i1 %.not33.not, label %24, label %.thread44

.thread36:                                        ; preds = %4
  %6 = getelementptr inbounds i8, ptr %0, i64 -32
  %7 = load i64, ptr %6, align 8, !tbaa !3
  %8 = add i64 %7, %2
  %spec.select = tail call i64 @llvm.umax.i64(i64 %8, i64 %3)
  %9 = getelementptr inbounds i8, ptr %0, i64 -24
  %10 = load i64, ptr %9, align 8, !tbaa !9
  %.not3338 = icmp ugt i64 %spec.select, %10
  br i1 %.not3338, label %.thread40, label %24

.thread40:                                        ; preds = %.thread36
  %11 = shl i64 %10, 1
  %12 = icmp ult i64 %spec.select, %11
  br i1 %12, label %13, label %.thread44

.thread44:                                        ; preds = %5, %.thread40
  %spec.select35394346 = phi i64 [ %spec.select, %.thread40 ], [ %spec.select34, %5 ]
  %spec.store.select = tail call i64 @llvm.umax.i64(i64 %spec.select35394346, i64 4)
  br label %13

13:                                               ; preds = %.thread40, %.thread44
  %.1 = phi i64 [ %spec.store.select, %.thread44 ], [ %11, %.thread40 ]
  %14 = getelementptr inbounds i8, ptr %0, i64 -32
  %15 = select i1 %.not, ptr null, ptr %14
  %16 = mul i64 %.1, %1
  %17 = add i64 %16, 32
  %18 = tail call ptr @realloc(ptr noundef %15, i64 noundef %17) #20
  %19 = getelementptr inbounds nuw i8, ptr %18, i64 32
  br i1 %.not, label %20, label %22

20:                                               ; preds = %13
  store i64 0, ptr %18, align 8, !tbaa !3
  %21 = getelementptr inbounds nuw i8, ptr %18, i64 16
  tail call void @llvm.memset.p0.i64(ptr noundef nonnull align 8 dereferenceable(16) %21, i8 0, i64 16, i1 false)
  br label %22

22:                                               ; preds = %13, %20
  %23 = getelementptr inbounds nuw i8, ptr %18, i64 8
  store i64 %.1, ptr %23, align 8, !tbaa !9
  br label %24

24:                                               ; preds = %.thread36, %5, %22
  %.0 = phi ptr [ %19, %22 ], [ null, %5 ], [ %0, %.thread36 ]
  ret ptr %.0
}